target datalayout = "e-m:e-p270:32:32-p271:32:32-p272:64:64-i64:64-i128:128-f80:128-n8:16:32:64-S128"
target triple = "x86_64-unknown-linux-gnu"

%"class.icu_75::UObject" = type { ptr }
%"class.icu_75::Normalizer2Impl" = type { %"class.icu_75::UObject", i16, i16, i16, i16, i16, i16, i16, i16, i16, i16, i16, i16, ptr, ptr, ptr, ptr, %"struct.icu_75::UInitOnce", ptr }
%"struct.icu_75::UInitOnce" = type { %"struct.std::atomic", i32 }
%"struct.std::atomic" = type { %"struct.std::__atomic_base" }
%"struct.std::__atomic_base" = type { i32 }
%struct.UCPTrie = type { ptr, %union.UCPTrieData, i32, i32, i32, i16, i8, i8, i32, i16, i16, i32, i32 }
%union.UCPTrieData = type { ptr }

; Function Attrs: mustprogress nounwind uwtable
define linkonce_odr noundef signext i8 @_ZNK6icu_7515Normalizer2Impl8isCompNoEt(ptr noundef nonnull align 8 dereferenceable(80) %this, i16 noundef zeroext %norm16) #2 comdat align 2 {
entry:
  %this.addr = alloca ptr, align 8
  %norm16.addr = alloca i16, align 2
  store ptr %this, ptr %this.addr, align 8
  store i16 %norm16, ptr %norm16.addr, align 2
  %this1 = load ptr, ptr %this.addr, align 8
  %minNoNo = getelementptr inbounds %"class.icu_75::Normalizer2Impl", ptr %this1, i32 0, i32 6
  %0 = load i16, ptr %minNoNo, align 2
  %conv = zext i16 %0 to i32
  %1 = load i16, ptr %norm16.addr, align 2
  %conv2 = zext i16 %1 to i32
  %cmp = icmp sle i32 %conv, %conv2
  br i1 %cmp, label %land.rhs, label %land.end

land.rhs:                                         ; preds = %entry
  %2 = load i16, ptr %norm16.addr, align 2
  %conv3 = zext i16 %2 to i32
  %minMaybeYes = getelementptr inbounds %"class.icu_75::Normalizer2Impl", ptr %this1, i32 0, i32 12
  %3 = load i16, ptr %minMaybeYes, align 2
  %conv4 = zext i16 %3 to i32
  %cmp5 = icmp slt i32 %conv3, %conv4
  br label %land.end

land.end:                                         ; preds = %land.rhs, %entry
  %4 = phi i1 [ false, %entry ], [ %cmp5, %land.rhs ]
  %conv6 = zext i1 %4 to i8
  ret i8 %conv6
}

; Function Attrs: mustprogress uwtable
define linkonce_odr noundef zeroext i16 @_ZNK6icu_7515Normalizer2Impl9getNorm16Ei(ptr noundef nonnull align 8 dereferenceable(80) %this, i32 noundef %c) #0 comdat align 2 {
entry:
  %this.addr = alloca ptr, align 8
  %c.addr = alloca i32, align 4
  store ptr %this, ptr %this.addr, align 8
  store i32 %c, ptr %c.addr, align 4
  %this1 = load ptr, ptr %this.addr, align 8
  %0 = load i32, ptr %c.addr, align 4
  %and = and i32 %0, -1024
  %cmp = icmp eq i32 %and, 55296
  br i1 %cmp, label %cond.true, label %cond.false

cond.true:                                        ; preds = %entry
  br label %cond.end25

cond.false:                                       ; preds = %entry
  %normTrie = getelementptr inbounds %"class.icu_75::Normalizer2Impl", ptr %this1, i32 0, i32 13
  %1 = load ptr, ptr %normTrie, align 8
  %data = getelementptr inbounds %struct.UCPTrie, ptr %1, i32 0, i32 1
  %2 = load ptr, ptr %data, align 8
  %3 = load i32, ptr %c.addr, align 4
  %cmp2 = icmp ule i32 %3, 65535
  br i1 %cmp2, label %cond.true3, label %cond.false6

cond.true3:                                       ; preds = %cond.false
  %normTrie4 = getelementptr inbounds %"class.icu_75::Normalizer2Impl", ptr %this1, i32 0, i32 13
  %4 = load ptr, ptr %normTrie4, align 8
  %index = getelementptr inbounds %struct.UCPTrie, ptr %4, i32 0, i32 0
  %5 = load ptr, ptr %index, align 8
  %6 = load i32, ptr %c.addr, align 4
  %shr = ashr i32 %6, 6
  %idxprom = sext i32 %shr to i64
  %arrayidx = getelementptr inbounds i16, ptr %5, i64 %idxprom
  %7 = load i16, ptr %arrayidx, align 2
  %conv = zext i16 %7 to i32
  %8 = load i32, ptr %c.addr, align 4
  %and5 = and i32 %8, 63
  %add = add nsw i32 %conv, %and5
  br label %cond.end21

cond.false6:                                      ; preds = %cond.false
  %9 = load i32, ptr %c.addr, align 4
  %cmp7 = icmp ule i32 %9, 1114111
  br i1 %cmp7, label %cond.true8, label %cond.false15

cond.true8:                                       ; preds = %cond.false6
  %10 = load i32, ptr %c.addr, align 4
  %normTrie9 = getelementptr inbounds %"class.icu_75::Normalizer2Impl", ptr %this1, i32 0, i32 13
  %11 = load ptr, ptr %normTrie9, align 8
  %highStart = getelementptr inbounds %struct.UCPTrie, ptr %11, i32 0, i32 4
  %12 = load i32, ptr %highStart, align 8
  %cmp10 = icmp sge i32 %10, %12
  br i1 %cmp10, label %cond.true11, label %cond.false13

cond.true11:                                      ; preds = %cond.true8
  %normTrie12 = getelementptr inbounds %"class.icu_75::Normalizer2Impl", ptr %this1, i32 0, i32 13
  %13 = load ptr, ptr %normTrie12, align 8
  %dataLength = getelementptr inbounds %struct.UCPTrie, ptr %13, i32 0, i32 3
  %14 = load i32, ptr %dataLength, align 4
  %sub = sub nsw i32 %14, 2
  br label %cond.end

cond.false13:                                     ; preds = %cond.true8
  %normTrie14 = getelementptr inbounds %"class.icu_75::Normalizer2Impl", ptr %this1, i32 0, i32 13
  %15 = load ptr, ptr %normTrie14, align 8
  %16 = load i32, ptr %c.addr, align 4
  %call = call i32 @ucptrie_internalSmallIndex_75(ptr noundef %15, i32 noundef %16)
  br label %cond.end

cond.end:                                         ; preds = %cond.false13, %cond.true11
  %cond = phi i32 [ %sub, %cond.true11 ], [ %call, %cond.false13 ]
  br label %cond.end19

cond.false15:                                     ; preds = %cond.false6
  %normTrie16 = getelementptr inbounds %"class.icu_75::Normalizer2Impl", ptr %this1, i32 0, i32 13
  %17 = load ptr, ptr %normTrie16, align 8
  %dataLength17 = getelementptr inbounds %struct.UCPTrie, ptr %17, i32 0, i32 3
  %18 = load i32, ptr %dataLength17, align 4
  %sub18 = sub nsw i32 %18, 1
  br label %cond.end19

cond.end19:                                       ; preds = %cond.false15, %cond.end
  %cond20 = phi i32 [ %cond, %cond.end ], [ %sub18, %cond.false15 ]
  br label %cond.end21

cond.end21:                                       ; preds = %cond.end19, %cond.true3
  %cond22 = phi i32 [ %add, %cond.true3 ], [ %cond20, %cond.end19 ]
  %idxprom23 = sext i32 %cond22 to i64
  %arrayidx24 = getelementptr inbounds i16, ptr %2, i64 %idxprom23
  %19 = load i16, ptr %arrayidx24, align 2
  br label %cond.end25

cond.end25:                                       ; preds = %cond.end21, %cond.true
  %cond26 = phi i16 [ 1, %cond.true ], [ %19, %cond.end21 ]
  ret i16 %cond26
}

; Function Attrs: mustprogress nounwind uwtable
define internal noundef signext i8 @_ZL9U_SUCCESS10UErrorCode(i32 noundef %code) #2 {
entry:
  %code.addr = alloca i32, align 4
  store i32 %code, ptr %code.addr, align 4
  %0 = load i32, ptr %code.addr, align 4
  %cmp = icmp sle i32 %0, 0
  %conv = zext i1 %cmp to i8
  ret i8 %conv
}

; Function Attrs: mustprogress uwtable
define internal noundef signext i8 @_ZL27hasFullCompositionExclusionRK14BinaryPropertyi9UProperty(ptr noundef nonnull align 8 dereferenceable(16) %0, i32 noundef %c, i32 noundef %1) #0 {
entry:
  %.addr = alloca ptr, align 8
  %c.addr = alloca i32, align 4
  %.addr1 = alloca i32, align 4
  %errorCode = alloca i32, align 4
  %impl = alloca ptr, align 8
  store ptr %0, ptr %.addr, align 8
  store i32 %c, ptr %c.addr, align 4
  store i32 %1, ptr %.addr1, align 4
  store i32 0, ptr %errorCode, align 4
  %call = call noundef ptr @_ZN6icu_7518Normalizer2Factory10getNFCImplER10UErrorCode(ptr noundef nonnull align 4 dereferenceable(4) %errorCode)
  store ptr %call, ptr %impl, align 8
  %2 = load i32, ptr %errorCode, align 4
  %call2 = call noundef signext i8 @_ZL9U_SUCCESS10UErrorCode(i32 noundef %2)
  %tobool = icmp ne i8 %call2, 0
  br i1 %tobool, label %land.rhs, label %land.end

land.rhs:                                         ; preds = %entry
  %3 = load ptr, ptr %impl, align 8
  %4 = load ptr, ptr %impl, align 8
  %5 = load i32, ptr %c.addr, align 4
  %call3 = call noundef zeroext i16 @_ZNK6icu_7515Normalizer2Impl9getNorm16Ei(ptr noundef nonnull align 8 dereferenceable(80) %4, i32 noundef %5)
  %call4 = call noundef signext i8 @_ZNK6icu_7515Normalizer2Impl8isCompNoEt(ptr noundef nonnull align 8 dereferenceable(80) %3, i16 noundef zeroext %call3)
  %tobool5 = icmp ne i8 %call4, 0
  br label %land.end

land.end:                                         ; preds = %land.rhs, %entry
  %6 = phi i1 [ false, %entry ], [ %tobool5, %land.rhs ]
  %conv = zext i1 %6 to i8
  ret i8 %conv
}