; Function Attrs: mustprogress uwtable
define internal noundef signext i8 @_ZL27hasFullCompositionExclusionRK14BinaryPropertyi9UProperty(ptr nocapture nonnull readnone align 8 %0, i32 noundef %c, i32 %1) #0 {
entry:
  %errorCode = alloca i32, align 4
  store i32 0, ptr %errorCode, align 4
  %call = call noundef ptr @_ZN6icu_7518Normalizer2Factory10getNFCImplER10UErrorCode(ptr noundef nonnull align 4 dereferenceable(4) %errorCode)
  %2 = load i32, ptr %errorCode, align 4
  %cmp.i = icmp sgt i32 %2, 0
  br i1 %cmp.i, label %land.end, label %land.rhs

land.rhs:                                         ; preds = %entry
  %and.i = and i32 %c, -1024
  %cmp.i2 = icmp eq i32 %and.i, 55296
  br i1 %cmp.i2, label %_ZNK6icu_7515Normalizer2Impl9getNorm16Ei.exit, label %cond.false.i

cond.false.i:                                     ; preds = %land.rhs
  %normTrie.i = getelementptr inbounds i8, ptr %call, i64 32
  %3 = load ptr, ptr %normTrie.i, align 8
  %data.i = getelementptr inbounds i8, ptr %3, i64 8
  %4 = load ptr, ptr %data.i, align 8
  %cmp2.i = icmp ult i32 %c, 65536
  br i1 %cmp2.i, label %cond.true3.i, label %cond.false6.i

cond.true3.i:                                     ; preds = %cond.false.i
  %5 = load ptr, ptr %3, align 8
  %shr.i = lshr i32 %c, 6
  %idxprom.i = zext nneg i32 %shr.i to i64
  %arrayidx.i = getelementptr inbounds i16, ptr %5, i64 %idxprom.i
  %6 = load i16, ptr %arrayidx.i, align 2
  %conv.i3 = zext i16 %6 to i32
  %and5.i = and i32 %c, 63
  %add.i = add nuw nsw i32 %and5.i, %conv.i3
  br label %cond.end21.i

cond.false6.i:                                    ; preds = %cond.false.i
  %cmp7.i = icmp ult i32 %c, 1114112
  br i1 %cmp7.i, label %cond.true8.i, label %cond.false15.i

cond.true8.i:                                     ; preds = %cond.false6.i
  %highStart.i = getelementptr inbounds i8, ptr %3, i64 24
  %7 = load i32, ptr %highStart.i, align 8
  %cmp10.not.i = icmp sgt i32 %7, %c
  br i1 %cmp10.not.i, label %cond.false13.i, label %cond.true11.i

cond.true11.i:                                    ; preds = %cond.true8.i
  %dataLength.i = getelementptr inbounds i8, ptr %3, i64 20
  %8 = load i32, ptr %dataLength.i, align 4
  %sub.i = add nsw i32 %8, -2
  br label %cond.end21.i

cond.false13.i:                                   ; preds = %cond.true8.i
  %call.i = call i32 @ucptrie_internalSmallIndex_75(ptr noundef nonnull %3, i32 noundef %c)
  br label %cond.end21.i

cond.false15.i:                                   ; preds = %cond.false6.i
  %dataLength17.i = getelementptr inbounds i8, ptr %3, i64 20
  %9 = load i32, ptr %dataLength17.i, align 4
  %sub18.i = add nsw i32 %9, -1
  br label %cond.end21.i

cond.end21.i:                                     ; preds = %cond.false15.i, %cond.false13.i, %cond.true11.i, %cond.true3.i
  %cond22.i = phi i32 [ %add.i, %cond.true3.i ], [ %sub18.i, %cond.false15.i ], [ %sub.i, %cond.true11.i ], [ %call.i, %cond.false13.i ]
  %idxprom23.i = sext i32 %cond22.i to i64
  %arrayidx24.i = getelementptr inbounds i16, ptr %4, i64 %idxprom23.i
  %10 = load i16, ptr %arrayidx24.i, align 2
  br label %_ZNK6icu_7515Normalizer2Impl9getNorm16Ei.exit

_ZNK6icu_7515Normalizer2Impl9getNorm16Ei.exit:    ; preds = %land.rhs, %cond.end21.i
  %cond26.i = phi i16 [ %10, %cond.end21.i ], [ 1, %land.rhs ]
  %minNoNo.i = getelementptr inbounds i8, ptr %call, i64 18
  %11 = load i16, ptr %minNoNo.i, align 2
  %cmp.not.i = icmp ule i16 %11, %cond26.i
  %minMaybeYes.i = getelementptr inbounds i8, ptr %call, i64 30
  %12 = load i16, ptr %minMaybeYes.i, align 2
  %cmp5.i = icmp ugt i16 %12, %cond26.i
  %narrow.i = select i1 %cmp.not.i, i1 %cmp5.i, i1 false
  %conv6.i = zext i1 %narrow.i to i8
  br label %land.end

land.end:                                         ; preds = %_ZNK6icu_7515Normalizer2Impl9getNorm16Ei.exit, %entry
  %conv = phi i8 [ 0, %entry ], [ %conv6.i, %_ZNK6icu_7515Normalizer2Impl9getNorm16Ei.exit ]
  ret i8 %conv
}